target datalayout = "e-m:e-p270:32:32-p271:32:32-p272:64:64-i64:64-i128:128-f80:128-n8:16:32:64-S128"
target triple = "x86_64-pc-linux-gnu"

; Function Attrs: nounwind sspstrong uwtable
define internal zeroext i1 @pm_encoding_ascii_isupper_char(ptr noundef %0, i64 noundef %1) #0 {
  %3 = alloca ptr, align 8
  %4 = alloca i64, align 8
  store ptr %0, ptr %3, align 8, !tbaa !7
  store i64 %1, ptr %4, align 8, !tbaa !12
  %5 = load ptr, ptr %3, align 8, !tbaa !7
  %6 = load i8, ptr %5, align 1, !tbaa !16
  %7 = zext i8 %6 to i64
  %8 = getelementptr [256 x i8], ptr @pm_encoding_ascii_table, i64 0, i64 %7
  %9 = load i8, ptr %8, align 1, !tbaa !16
  %10 = zext i8 %9 to i32
  %11 = and i32 %10, 4
  %12 = icmp ne i32 %11, 0
  ret i1 %12
}

; Function Attrs: nounwind sspstrong uwtable
define internal i64 @pm_encoding_euc_jp_char_width(ptr noundef %0, i64 noundef %1) #0 {
  %3 = alloca i64, align 8
  %4 = alloca ptr, align 8
  %5 = alloca i64, align 8
  store ptr %0, ptr %4, align 8, !tbaa !7
  store i64 %1, ptr %5, align 8, !tbaa !12
  %6 = load ptr, ptr %4, align 8, !tbaa !7
  %7 = load i8, ptr %6, align 1, !tbaa !16
  %8 = zext i8 %7 to i32
  %9 = icmp slt i32 %8, 128
  br i1 %9, label %10, label %11

10:                                               ; preds = %2
  store i64 1, ptr %3, align 8
  br label %80

11:                                               ; preds = %2
  %12 = load i64, ptr %5, align 8, !tbaa !12
  %13 = icmp sgt i64 %12, 1
  br i1 %13, label %14, label %45

14:                                               ; preds = %11
  %15 = load ptr, ptr %4, align 8, !tbaa !7
  %16 = getelementptr i8, ptr %15, i64 0
  %17 = load i8, ptr %16, align 1, !tbaa !16
  %18 = zext i8 %17 to i32
  %19 = icmp eq i32 %18, 142
  br i1 %19, label %32, label %20

20:                                               ; preds = %14
  %21 = load ptr, ptr %4, align 8, !tbaa !7
  %22 = getelementptr i8, ptr %21, i64 0
  %23 = load i8, ptr %22, align 1, !tbaa !16
  %24 = zext i8 %23 to i32
  %25 = icmp sge i32 %24, 161
  br i1 %25, label %26, label %45

26:                                               ; preds = %20
  %27 = load ptr, ptr %4, align 8, !tbaa !7
  %28 = getelementptr i8, ptr %27, i64 0
  %29 = load i8, ptr %28, align 1, !tbaa !16
  %30 = zext i8 %29 to i32
  %31 = icmp sle i32 %30, 254
  br i1 %31, label %32, label %45

32:                                               ; preds = %26, %14
  %33 = load ptr, ptr %4, align 8, !tbaa !7
  %34 = getelementptr i8, ptr %33, i64 1
  %35 = load i8, ptr %34, align 1, !tbaa !16
  %36 = zext i8 %35 to i32
  %37 = icmp sge i32 %36, 161
  br i1 %37, label %38, label %45

38:                                               ; preds = %32
  %39 = load ptr, ptr %4, align 8, !tbaa !7
  %40 = getelementptr i8, ptr %39, i64 1
  %41 = load i8, ptr %40, align 1, !tbaa !16
  %42 = zext i8 %41 to i32
  %43 = icmp sle i32 %42, 254
  br i1 %43, label %44, label %45

44:                                               ; preds = %38
  store i64 2, ptr %3, align 8
  br label %80

45:                                               ; preds = %38, %32, %26, %20, %11
  %46 = load i64, ptr %5, align 8, !tbaa !12
  %47 = icmp sgt i64 %46, 2
  br i1 %47, label %48, label %79

48:                                               ; preds = %45
  %49 = load ptr, ptr %4, align 8, !tbaa !7
  %50 = getelementptr i8, ptr %49, i64 0
  %51 = load i8, ptr %50, align 1, !tbaa !16
  %52 = zext i8 %51 to i32
  %53 = icmp eq i32 %52, 143
  br i1 %53, label %54, label %79

54:                                               ; preds = %48
  %55 = load ptr, ptr %4, align 8, !tbaa !7
  %56 = getelementptr i8, ptr %55, i64 1
  %57 = load i8, ptr %56, align 1, !tbaa !16
  %58 = zext i8 %57 to i32
  %59 = icmp sge i32 %58, 161
  br i1 %59, label %60, label %79

60:                                               ; preds = %54
  %61 = load ptr, ptr %4, align 8, !tbaa !7
  %62 = getelementptr i8, ptr %61, i64 2
  %63 = load i8, ptr %62, align 1, !tbaa !16
  %64 = zext i8 %63 to i32
  %65 = icmp sle i32 %64, 254
  br i1 %65, label %66, label %79

66:                                               ; preds = %60
  %67 = load ptr, ptr %4, align 8, !tbaa !7
  %68 = getelementptr i8, ptr %67, i64 2
  %69 = load i8, ptr %68, align 1, !tbaa !16
  %70 = zext i8 %69 to i32
  %71 = icmp sge i32 %70, 161
  br i1 %71, label %72, label %79

72:                                               ; preds = %66
  %73 = load ptr, ptr %4, align 8, !tbaa !7
  %74 = getelementptr i8, ptr %73, i64 2
  %75 = load i8, ptr %74, align 1, !tbaa !16
  %76 = zext i8 %75 to i32
  %77 = icmp sle i32 %76, 254
  br i1 %77, label %78, label %79

78:                                               ; preds = %72
  store i64 3, ptr %3, align 8
  br label %80

79:                                               ; preds = %72, %66, %60, %54, %48, %45
  store i64 0, ptr %3, align 8
  br label %80

80:                                               ; preds = %79, %78, %44, %10
  %81 = load i64, ptr %3, align 8
  ret i64 %81
}

; Function Attrs: nounwind sspstrong uwtable
define internal zeroext i1 @pm_encoding_euc_jp_isupper_char(ptr noundef %0, i64 noundef %1) #0 {
  %3 = alloca i1, align 1
  %4 = alloca ptr, align 8
  %5 = alloca i64, align 8
  %6 = alloca i64, align 8
  %7 = alloca i32, align 4
  store ptr %0, ptr %4, align 8, !tbaa !7
  store i64 %1, ptr %5, align 8, !tbaa !12
  call void @llvm.lifetime.start.p0(i64 8, ptr %6) #3
  %8 = load ptr, ptr %4, align 8, !tbaa !7
  %9 = load i64, ptr %5, align 8, !tbaa !12
  %10 = call i64 @pm_encoding_euc_jp_char_width(ptr noundef %8, i64 noundef %9)
  store i64 %10, ptr %6, align 8, !tbaa !12
  %11 = load i64, ptr %6, align 8, !tbaa !12
  %12 = icmp eq i64 %11, 1
  br i1 %12, label %13, label %17

13:                                               ; preds = %2
  %14 = load ptr, ptr %4, align 8, !tbaa !7
  %15 = load i64, ptr %5, align 8, !tbaa !12
  %16 = call zeroext i1 @pm_encoding_ascii_isupper_char(ptr noundef %14, i64 noundef %15)
  store i1 %16, ptr %3, align 1
  store i32 1, ptr %7, align 4
  br label %79

17:                                               ; preds = %2
  %18 = load i64, ptr %6, align 8, !tbaa !12
  %19 = icmp eq i64 %18, 2
  br i1 %19, label %20, label %78

20:                                               ; preds = %17
  %21 = load ptr, ptr %4, align 8, !tbaa !7
  %22 = getelementptr i8, ptr %21, i64 0
  %23 = load i8, ptr %22, align 1, !tbaa !16
  %24 = zext i8 %23 to i32
  %25 = icmp eq i32 %24, 163
  br i1 %25, label %26, label %38

26:                                               ; preds = %20
  %27 = load ptr, ptr %4, align 8, !tbaa !7
  %28 = getelementptr i8, ptr %27, i64 1
  %29 = load i8, ptr %28, align 1, !tbaa !16
  %30 = zext i8 %29 to i32
  %31 = icmp sge i32 %30, 193
  br i1 %31, label %32, label %38

32:                                               ; preds = %26
  %33 = load ptr, ptr %4, align 8, !tbaa !7
  %34 = getelementptr i8, ptr %33, i64 1
  %35 = load i8, ptr %34, align 1, !tbaa !16
  %36 = zext i8 %35 to i32
  %37 = icmp sle i32 %36, 218
  br i1 %37, label %76, label %38

38:                                               ; preds = %32, %26, %20
  %39 = load ptr, ptr %4, align 8, !tbaa !7
  %40 = getelementptr i8, ptr %39, i64 0
  %41 = load i8, ptr %40, align 1, !tbaa !16
  %42 = zext i8 %41 to i32
  %43 = icmp eq i32 %42, 166
  br i1 %43, label %44, label %56

44:                                               ; preds = %38
  %45 = load ptr, ptr %4, align 8, !tbaa !7
  %46 = getelementptr i8, ptr %45, i64 1
  %47 = load i8, ptr %46, align 1, !tbaa !16
  %48 = zext i8 %47 to i32
  %49 = icmp sge i32 %48, 161
  br i1 %49, label %50, label %56

50:                                               ; preds = %44
  %51 = load ptr, ptr %4, align 8, !tbaa !7
  %52 = getelementptr i8, ptr %51, i64 1
  %53 = load i8, ptr %52, align 1, !tbaa !16
  %54 = zext i8 %53 to i32
  %55 = icmp sle i32 %54, 184
  br i1 %55, label %76, label %56

56:                                               ; preds = %50, %44, %38
  %57 = load ptr, ptr %4, align 8, !tbaa !7
  %58 = getelementptr i8, ptr %57, i64 0
  %59 = load i8, ptr %58, align 1, !tbaa !16
  %60 = zext i8 %59 to i32
  %61 = icmp eq i32 %60, 167
  br i1 %61, label %62, label %74

62:                                               ; preds = %56
  %63 = load ptr, ptr %4, align 8, !tbaa !7
  %64 = getelementptr i8, ptr %63, i64 1
  %65 = load i8, ptr %64, align 1, !tbaa !16
  %66 = zext i8 %65 to i32
  %67 = icmp sge i32 %66, 161
  br i1 %67, label %68, label %74

68:                                               ; preds = %62
  %69 = load ptr, ptr %4, align 8, !tbaa !7
  %70 = getelementptr i8, ptr %69, i64 1
  %71 = load i8, ptr %70, align 1, !tbaa !16
  %72 = zext i8 %71 to i32
  %73 = icmp sle i32 %72, 193
  br label %74

74:                                               ; preds = %68, %62, %56
  %75 = phi i1 [ false, %62 ], [ false, %56 ], [ %73, %68 ]
  br label %76

76:                                               ; preds = %74, %50, %32
  %77 = phi i1 [ true, %50 ], [ true, %32 ], [ %75, %74 ]
  store i1 %77, ptr %3, align 1
  store i32 1, ptr %7, align 4
  br label %79

78:                                               ; preds = %17
  store i1 false, ptr %3, align 1
  store i32 1, ptr %7, align 4
  br label %79

79:                                               ; preds = %78, %76, %13
  call void @llvm.lifetime.end.p0(i64 8, ptr %6) #3
  %80 = load i1, ptr %3, align 1
  ret i1 %80
}