; Function Attrs: mustprogress nofree norecurse nosync nounwind sspstrong willreturn memory(argmem: read) uwtable
define internal zeroext i1 @pm_encoding_euc_jp_isupper_char(ptr noundef readonly captures(none) %0, i64 noundef %1) #2 {
  %3 = load i8, ptr %0, align 1, !tbaa !7
  %4 = icmp sgt i8 %3, -1
  br i1 %4, label %14, label %5

5:                                                ; preds = %2
  %6 = icmp sgt i64 %1, 1
  br i1 %6, label %7, label %pm_encoding_euc_jp_char_width.exit.thread

7:                                                ; preds = %5
  %8 = icmp ne i8 %3, -114
  %9 = add nsw i8 %3, 1
  %or.cond.i = icmp ult i8 %9, -94
  %or.cond21.i = select i1 %8, i1 %or.cond.i, i1 false
  br i1 %or.cond21.i, label %pm_encoding_euc_jp_char_width.exit.thread, label %10

10:                                               ; preds = %7
  %11 = getelementptr i8, ptr %0, i64 1
  %12 = load i8, ptr %11, align 1, !tbaa !7
  %13 = add i8 %12, 1
  %or.cond18.i = icmp ult i8 %13, -94
  br i1 %or.cond18.i, label %pm_encoding_euc_jp_char_width.exit.thread, label %pm_encoding_euc_jp_char_width.exit

14:                                               ; preds = %2
  %15 = zext nneg i8 %3 to i64
  %16 = getelementptr [256 x i8], ptr @pm_encoding_windows_874_table, i64 0, i64 %15
  %17 = load i8, ptr %16, align 1, !tbaa !7
  %18 = and i8 %17, 4
  %19 = icmp ne i8 %18, 0
  br label %pm_encoding_euc_jp_char_width.exit.thread

pm_encoding_euc_jp_char_width.exit:               ; preds = %10
  switch i8 %3, label %pm_encoding_euc_jp_char_width.exit.thread [
    i8 -93, label %20
    i8 -90, label %22
    i8 -89, label %24
  ]

20:                                               ; preds = %pm_encoding_euc_jp_char_width.exit
  %21 = add nsw i8 %12, 63
  %or.cond = icmp ult i8 %21, 26
  br i1 %or.cond, label %pm_encoding_euc_jp_char_width.exit.thread, label %.thread23

22:                                               ; preds = %pm_encoding_euc_jp_char_width.exit
  %23 = add nsw i8 %12, 95
  %or.cond19 = icmp samesign ult i8 %23, 24
  br i1 %or.cond19, label %pm_encoding_euc_jp_char_width.exit.thread, label %.thread23

.thread23:                                        ; preds = %22, %20
  br label %pm_encoding_euc_jp_char_width.exit.thread

24:                                               ; preds = %pm_encoding_euc_jp_char_width.exit
  %25 = add nsw i8 %12, 95
  %spec.select = icmp samesign ult i8 %25, 33
  br label %pm_encoding_euc_jp_char_width.exit.thread

pm_encoding_euc_jp_char_width.exit.thread:        ; preds = %7, %10, %pm_encoding_euc_jp_char_width.exit, %5, %.thread23, %24, %20, %22, %14
  %.0 = phi i1 [ %19, %14 ], [ true, %20 ], [ true, %22 ], [ %spec.select, %24 ], [ false, %.thread23 ], [ false, %5 ], [ false, %pm_encoding_euc_jp_char_width.exit ], [ false, %10 ], [ false, %7 ]
  ret i1 %.0
}